; Function Attrs: mustprogress uwtable
define noundef nonnull align 8 dereferenceable(96) ptr @_ZN6icu_7518AnnualTimeZoneRuleaSERKS0_(ptr noundef nonnull returned align 8 dereferenceable(96) %this, ptr noundef nonnull align 8 dereferenceable(96) %right) local_unnamed_addr #0 align 2 {
entry:
  %cmp.not = icmp eq ptr %this, %right
  br i1 %cmp.not, label %if.end, label %_ZN6icu_7512TimeZoneRuleaSERKS0_.exit

_ZN6icu_7512TimeZoneRuleaSERKS0_.exit:            ; preds = %entry
  %fName.i = getelementptr inbounds i8, ptr %right, i64 8
  %fName2.i = getelementptr inbounds i8, ptr %this, i64 8
  %call.i = tail call noundef nonnull align 8 dereferenceable(64) ptr @_ZN6icu_7513UnicodeStringaSERKS0_(ptr noundef nonnull align 8 dereferenceable(64) %fName2.i, ptr noundef nonnull align 8 dereferenceable(64) %fName.i)
  %fRawOffset.i = getelementptr inbounds i8, ptr %right, i64 72
  %0 = load i32, ptr %fRawOffset.i, align 8
  %fRawOffset3.i = getelementptr inbounds i8, ptr %this, i64 72
  store i32 %0, ptr %fRawOffset3.i, align 8
  %fDSTSavings.i = getelementptr inbounds i8, ptr %right, i64 76
  %1 = load i32, ptr %fDSTSavings.i, align 4
  %fDSTSavings4.i = getelementptr inbounds i8, ptr %this, i64 76
  store i32 %1, ptr %fDSTSavings4.i, align 4
  %fDateTimeRule = getelementptr inbounds i8, ptr %this, i64 80
  %2 = load ptr, ptr %fDateTimeRule, align 8
  %isnull = icmp eq ptr %2, null
  br i1 %isnull, label %delete.end, label %delete.notnull

delete.notnull:                                   ; preds = %_ZN6icu_7512TimeZoneRuleaSERKS0_.exit
  %vtable = load ptr, ptr %2, align 8
  %vfn = getelementptr inbounds i8, ptr %vtable, i64 8
  %3 = load ptr, ptr %vfn, align 8
  tail call void %3(ptr noundef nonnull align 8 dereferenceable(36) %2) #16
  br label %delete.end

delete.end:                                       ; preds = %delete.notnull, %_ZN6icu_7512TimeZoneRuleaSERKS0_.exit
  %fDateTimeRule2 = getelementptr inbounds i8, ptr %right, i64 80
  %4 = load ptr, ptr %fDateTimeRule2, align 8
  %call3 = tail call noundef ptr @_ZNK6icu_7512DateTimeRule5cloneEv(ptr noundef nonnull align 8 dereferenceable(36) %4)
  store ptr %call3, ptr %fDateTimeRule, align 8
  %fStartYear = getelementptr inbounds i8, ptr %right, i64 88
  %5 = load i32, ptr %fStartYear, align 8
  %fStartYear5 = getelementptr inbounds i8, ptr %this, i64 88
  store i32 %5, ptr %fStartYear5, align 8
  %fEndYear = getelementptr inbounds i8, ptr %right, i64 92
  %6 = load i32, ptr %fEndYear, align 4
  %fEndYear6 = getelementptr inbounds i8, ptr %this, i64 92
  store i32 %6, ptr %fEndYear6, align 4
  br label %if.end

if.end:                                           ; preds = %delete.end, %entry
  ret ptr %this
}